; Function Attrs: null_pointer_is_valid sspstrong uwtable
define internal range(i32 15, 1) i32 @dissect_s5066dts_tcp(ptr noundef %0, ptr noundef %1, ptr noundef %2, ptr noundef %3) #0 {
  %5 = tail call i32 @tvb_captured_length(ptr noundef %0)
  %6 = icmp ult i32 %5, 15
  br i1 %6, label %19, label %7

7:                                                ; preds = %4
  %8 = tail call zeroext i8 @tvb_get_uint8(ptr noundef %0, i32 noundef 0)
  %.not = icmp eq i8 %8, -112
  br i1 %.not, label %9, label %19

9:                                                ; preds = %7
  %10 = tail call zeroext i8 @tvb_get_uint8(ptr noundef %0, i32 noundef 1)
  %.not11 = icmp eq i8 %10, -21
  br i1 %.not11, label %11, label %19

11:                                               ; preds = %9
  %12 = load ptr, ptr @config_s5066dts_ports, align 8
  %13 = getelementptr inbounds nuw i8, ptr %1, i64 288
  %14 = load i32, ptr %13, align 8
  %15 = tail call zeroext i1 @value_is_in_range(ptr noundef %12, i32 noundef %14)
  br i1 %15, label %16, label %19

16:                                               ; preds = %11
  %17 = load i8, ptr @config_proto_desegment, align 1, !range !6, !noundef !7
  %18 = trunc nuw i8 %17 to i1
  tail call void @tcp_dissect_pdus(ptr noundef %0, ptr noundef %1, ptr noundef %2, i1 noundef zeroext %18, i32 noundef 15, ptr noundef nonnull @calculate_s5066dts_dpdu_len, ptr noundef nonnull @dissect_s5066dts, ptr noundef %3)
  br label %19

19:                                               ; preds = %11, %7, %9, %4, %16
  %.0 = phi i32 [ %5, %16 ], [ 0, %4 ], [ 0, %9 ], [ 0, %7 ], [ 0, %11 ]
  ret i32 %.0
}